target datalayout = "e-m:e-p270:32:32-p271:32:32-p272:64:64-i64:64-i128:128-f80:128-n8:16:32:64-S128"
target triple = "x86_64-pc-linux-gnu"

%"class.icu_77::RBBITableBuilder" = type <{ ptr, ptr, ptr, ptr, ptr, ptr, i32, [4 x i8] }>
%"class.icu_77::UVector" = type { %"class.icu_77::UObject", i32, i32, ptr, ptr, ptr }
%"class.icu_77::UObject" = type { ptr }
%"class.icu_77::RBBIRuleBuilder" = type { ptr, ptr, ptr, ptr, ptr, %"class.icu_77::UnicodeString", ptr, ptr, ptr, ptr, ptr, ptr, i8, i8, ptr, ptr, ptr, ptr }
%"class.icu_77::UnicodeString" = type { %"class.icu_77::Replaceable", %"union.icu_77::UnicodeString::StackBufferOrFields" }
%"class.icu_77::Replaceable" = type { %"class.icu_77::UObject" }
%"union.icu_77::UnicodeString::StackBufferOrFields" = type { %struct.anon.0, [32 x i8] }
%struct.anon.0 = type { i16, i32, i32, ptr }
%"class.icu_77::RBBIStateDescriptor" = type { i8, i32, i32, ptr, i32, ptr, ptr }
%"class.icu_77::UVector32" = type { %"class.icu_77::UObject", i32, i32, i32, ptr }
%"struct.std::pair" = type { i32, i32 }

; Function Attrs: inlinehint mustprogress nounwind uwtable
define linkonce_odr noundef i32 @_ZNK6icu_779UVector3210elementAtiEi(ptr noundef nonnull align 8 dereferenceable(32) %0, i32 noundef %1) #1 comdat align 2 {
  %3 = alloca ptr, align 8
  %4 = alloca i32, align 4
  store ptr %0, ptr %3, align 8, !tbaa !110
  store i32 %1, ptr %4, align 4, !tbaa !26
  %5 = load ptr, ptr %3, align 8
  %6 = load i32, ptr %4, align 4, !tbaa !26
  %7 = icmp sge i32 %6, 0
  br i1 %7, label %8, label %25

8:                                                ; preds = %2
  %9 = getelementptr inbounds nuw %"class.icu_77::UVector32", ptr %5, i32 0, i32 1
  %10 = load i32, ptr %9, align 8, !tbaa !111
  %11 = icmp sgt i32 %10, 0
  br i1 %11, label %12, label %25

12:                                               ; preds = %8
  %13 = getelementptr inbounds nuw %"class.icu_77::UVector32", ptr %5, i32 0, i32 1
  %14 = load i32, ptr %13, align 8, !tbaa !111
  %15 = load i32, ptr %4, align 4, !tbaa !26
  %16 = sub nsw i32 %14, %15
  %17 = icmp sgt i32 %16, 0
  br i1 %17, label %18, label %25

18:                                               ; preds = %12
  %19 = getelementptr inbounds nuw %"class.icu_77::UVector32", ptr %5, i32 0, i32 4
  %20 = load ptr, ptr %19, align 8, !tbaa !114
  %21 = load i32, ptr %4, align 4, !tbaa !26
  %22 = sext i32 %21 to i64
  %23 = getelementptr inbounds i32, ptr %20, i64 %22
  %24 = load i32, ptr %23, align 4, !tbaa !26
  br label %26

25:                                               ; preds = %12, %8, %2
  br label %26

26:                                               ; preds = %25, %18
  %27 = phi i32 [ %24, %18 ], [ 0, %25 ]
  ret i32 %27
}

; Function Attrs: inlinehint mustprogress nounwind uwtable
define linkonce_odr noundef i32 @_ZNK6icu_777UVector4sizeEv(ptr noundef nonnull align 8 dereferenceable(40) %0) #1 comdat align 2 {
  %2 = alloca ptr, align 8
  store ptr %0, ptr %2, align 8, !tbaa !31
  %3 = load ptr, ptr %2, align 8
  %4 = getelementptr inbounds nuw %"class.icu_77::UVector", ptr %3, i32 0, i32 1
  %5 = load i32, ptr %4, align 8, !tbaa !32
  ret i32 %5
}

; Function Attrs: mustprogress uwtable
define noundef zeroext i1 @_ZN6icu_7716RBBITableBuilder18findDuplicateStateEPSt4pairIiiE(ptr noundef nonnull align 8 dereferenceable(52) %0, ptr noundef %1) #0 align 2 {
  %3 = alloca i1, align 1
  %4 = alloca ptr, align 8
  %5 = alloca ptr, align 8
  %6 = alloca i32, align 4
  %7 = alloca i32, align 4
  %8 = alloca ptr, align 8
  %9 = alloca ptr, align 8
  %10 = alloca i32, align 4
  %11 = alloca i8, align 1
  %12 = alloca i32, align 4
  %13 = alloca i32, align 4
  %14 = alloca i32, align 4
  store ptr %0, ptr %4, align 8, !tbaa !3
  store ptr %1, ptr %5, align 8, !tbaa !124
  %15 = load ptr, ptr %4, align 8
  call void @llvm.lifetime.start.p0(i64 4, ptr %6) #11
  %16 = getelementptr inbounds nuw %"class.icu_77::RBBITableBuilder", ptr %15, i32 0, i32 3
  %17 = load ptr, ptr %16, align 8, !tbaa !20
  %18 = call noundef i32 @_ZNK6icu_777UVector4sizeEv(ptr noundef nonnull align 8 dereferenceable(40) %17)
  store i32 %18, ptr %6, align 4, !tbaa !26
  call void @llvm.lifetime.start.p0(i64 4, ptr %7) #11
  %19 = getelementptr inbounds nuw %"class.icu_77::RBBITableBuilder", ptr %15, i32 0, i32 0
  %20 = load ptr, ptr %19, align 8, !tbaa !14
  %21 = getelementptr inbounds nuw %"class.icu_77::RBBIRuleBuilder", ptr %20, i32 0, i32 14
  %22 = load ptr, ptr %21, align 8, !tbaa !39
  %23 = call noundef i32 @_ZNK6icu_7714RBBISetBuilder20getNumCharCategoriesEv(ptr noundef nonnull align 8 dereferenceable(53) %22)
  store i32 %23, ptr %7, align 4, !tbaa !26
  br label %24

24:                                               ; preds = %152, %2
  %25 = load ptr, ptr %5, align 8, !tbaa !124
  %26 = getelementptr inbounds nuw %"struct.std::pair", ptr %25, i32 0, i32 0
  %27 = load i32, ptr %26, align 4, !tbaa !126
  %28 = load i32, ptr %6, align 4, !tbaa !26
  %29 = sub nsw i32 %28, 1
  %30 = icmp slt i32 %27, %29
  br i1 %30, label %31, label %157

31:                                               ; preds = %24
  call void @llvm.lifetime.start.p0(i64 8, ptr %8) #11
  %32 = getelementptr inbounds nuw %"class.icu_77::RBBITableBuilder", ptr %15, i32 0, i32 3
  %33 = load ptr, ptr %32, align 8, !tbaa !20
  %34 = load ptr, ptr %5, align 8, !tbaa !124
  %35 = getelementptr inbounds nuw %"struct.std::pair", ptr %34, i32 0, i32 0
  %36 = load i32, ptr %35, align 4, !tbaa !126
  %37 = call noundef ptr @_ZNK6icu_777UVector9elementAtEi(ptr noundef nonnull align 8 dereferenceable(40) %33, i32 noundef %36)
  store ptr %37, ptr %8, align 8, !tbaa !70
  %38 = load ptr, ptr %5, align 8, !tbaa !124
  %39 = getelementptr inbounds nuw %"struct.std::pair", ptr %38, i32 0, i32 0
  %40 = load i32, ptr %39, align 4, !tbaa !126
  %41 = add nsw i32 %40, 1
  %42 = load ptr, ptr %5, align 8, !tbaa !124
  %43 = getelementptr inbounds nuw %"struct.std::pair", ptr %42, i32 0, i32 1
  store i32 %41, ptr %43, align 4, !tbaa !128
  br label %44

44:                                               ; preds = %143, %31
  %45 = load ptr, ptr %5, align 8, !tbaa !124
  %46 = getelementptr inbounds nuw %"struct.std::pair", ptr %45, i32 0, i32 1
  %47 = load i32, ptr %46, align 4, !tbaa !128
  %48 = load i32, ptr %6, align 4, !tbaa !26
  %49 = icmp slt i32 %47, %48
  br i1 %49, label %50, label %148

50:                                               ; preds = %44
  call void @llvm.lifetime.start.p0(i64 8, ptr %9) #11
  %51 = getelementptr inbounds nuw %"class.icu_77::RBBITableBuilder", ptr %15, i32 0, i32 3
  %52 = load ptr, ptr %51, align 8, !tbaa !20
  %53 = load ptr, ptr %5, align 8, !tbaa !124
  %54 = getelementptr inbounds nuw %"struct.std::pair", ptr %53, i32 0, i32 1
  %55 = load i32, ptr %54, align 4, !tbaa !128
  %56 = call noundef ptr @_ZNK6icu_777UVector9elementAtEi(ptr noundef nonnull align 8 dereferenceable(40) %52, i32 noundef %55)
  store ptr %56, ptr %9, align 8, !tbaa !70
  %57 = load ptr, ptr %8, align 8, !tbaa !70
  %58 = getelementptr inbounds nuw %"class.icu_77::RBBIStateDescriptor", ptr %57, i32 0, i32 1
  %59 = load i32, ptr %58, align 4, !tbaa !90
  %60 = load ptr, ptr %9, align 8, !tbaa !70
  %61 = getelementptr inbounds nuw %"class.icu_77::RBBIStateDescriptor", ptr %60, i32 0, i32 1
  %62 = load i32, ptr %61, align 4, !tbaa !90
  %63 = icmp ne i32 %59, %62
  br i1 %63, label %80, label %64

64:                                               ; preds = %50
  %65 = load ptr, ptr %8, align 8, !tbaa !70
  %66 = getelementptr inbounds nuw %"class.icu_77::RBBIStateDescriptor", ptr %65, i32 0, i32 2
  %67 = load i32, ptr %66, align 8, !tbaa !93
  %68 = load ptr, ptr %9, align 8, !tbaa !70
  %69 = getelementptr inbounds nuw %"class.icu_77::RBBIStateDescriptor", ptr %68, i32 0, i32 2
  %70 = load i32, ptr %69, align 8, !tbaa !93
  %71 = icmp ne i32 %67, %70
  br i1 %71, label %80, label %72

72:                                               ; preds = %64
  %73 = load ptr, ptr %8, align 8, !tbaa !70
  %74 = getelementptr inbounds nuw %"class.icu_77::RBBIStateDescriptor", ptr %73, i32 0, i32 4
  %75 = load i32, ptr %74, align 8, !tbaa !100
  %76 = load ptr, ptr %9, align 8, !tbaa !70
  %77 = getelementptr inbounds nuw %"class.icu_77::RBBIStateDescriptor", ptr %76, i32 0, i32 4
  %78 = load i32, ptr %77, align 8, !tbaa !100
  %79 = icmp ne i32 %75, %78
  br i1 %79, label %80, label %81

80:                                               ; preds = %72, %64, %50
  store i32 7, ptr %10, align 4
  br label %140

81:                                               ; preds = %72
  call void @llvm.lifetime.start.p0(i64 1, ptr %11) #11
  store i8 1, ptr %11, align 1, !tbaa !83
  call void @llvm.lifetime.start.p0(i64 4, ptr %12) #11
  store i32 0, ptr %12, align 4, !tbaa !26
  br label %82

82:                                               ; preds = %130, %81
  %83 = load i32, ptr %12, align 4, !tbaa !26
  %84 = load i32, ptr %7, align 4, !tbaa !26
  %85 = icmp slt i32 %83, %84
  br i1 %85, label %87, label %86

86:                                               ; preds = %82
  store i32 8, ptr %10, align 4
  br label %133

87:                                               ; preds = %82
  call void @llvm.lifetime.start.p0(i64 4, ptr %13) #11
  %88 = load ptr, ptr %8, align 8, !tbaa !70
  %89 = getelementptr inbounds nuw %"class.icu_77::RBBIStateDescriptor", ptr %88, i32 0, i32 6
  %90 = load ptr, ptr %89, align 8, !tbaa !79
  %91 = load i32, ptr %12, align 4, !tbaa !26
  %92 = call noundef i32 @_ZNK6icu_779UVector3210elementAtiEi(ptr noundef nonnull align 8 dereferenceable(32) %90, i32 noundef %91)
  store i32 %92, ptr %13, align 4, !tbaa !26
  call void @llvm.lifetime.start.p0(i64 4, ptr %14) #11
  %93 = load ptr, ptr %9, align 8, !tbaa !70
  %94 = getelementptr inbounds nuw %"class.icu_77::RBBIStateDescriptor", ptr %93, i32 0, i32 6
  %95 = load ptr, ptr %94, align 8, !tbaa !79
  %96 = load i32, ptr %12, align 4, !tbaa !26
  %97 = call noundef i32 @_ZNK6icu_779UVector3210elementAtiEi(ptr noundef nonnull align 8 dereferenceable(32) %95, i32 noundef %96)
  store i32 %97, ptr %14, align 4, !tbaa !26
  %98 = load i32, ptr %13, align 4, !tbaa !26
  %99 = load i32, ptr %14, align 4, !tbaa !26
  %100 = icmp eq i32 %98, %99
  br i1 %100, label %126, label %101

101:                                              ; preds = %87
  %102 = load i32, ptr %13, align 4, !tbaa !26
  %103 = load ptr, ptr %5, align 8, !tbaa !124
  %104 = getelementptr inbounds nuw %"struct.std::pair", ptr %103, i32 0, i32 0
  %105 = load i32, ptr %104, align 4, !tbaa !126
  %106 = icmp eq i32 %102, %105
  br i1 %106, label %113, label %107

107:                                              ; preds = %101
  %108 = load i32, ptr %13, align 4, !tbaa !26
  %109 = load ptr, ptr %5, align 8, !tbaa !124
  %110 = getelementptr inbounds nuw %"struct.std::pair", ptr %109, i32 0, i32 1
  %111 = load i32, ptr %110, align 4, !tbaa !128
  %112 = icmp eq i32 %108, %111
  br i1 %112, label %113, label %125

113:                                              ; preds = %107, %101
  %114 = load i32, ptr %14, align 4, !tbaa !26
  %115 = load ptr, ptr %5, align 8, !tbaa !124
  %116 = getelementptr inbounds nuw %"struct.std::pair", ptr %115, i32 0, i32 0
  %117 = load i32, ptr %116, align 4, !tbaa !126
  %118 = icmp eq i32 %114, %117
  br i1 %118, label %126, label %119

119:                                              ; preds = %113
  %120 = load i32, ptr %14, align 4, !tbaa !26
  %121 = load ptr, ptr %5, align 8, !tbaa !124
  %122 = getelementptr inbounds nuw %"struct.std::pair", ptr %121, i32 0, i32 1
  %123 = load i32, ptr %122, align 4, !tbaa !128
  %124 = icmp eq i32 %120, %123
  br i1 %124, label %126, label %125

125:                                              ; preds = %119, %107
  store i8 0, ptr %11, align 1, !tbaa !83
  store i32 8, ptr %10, align 4
  br label %127

126:                                              ; preds = %119, %113, %87
  store i32 0, ptr %10, align 4
  br label %127

127:                                              ; preds = %126, %125
  call void @llvm.lifetime.end.p0(i64 4, ptr %14) #11
  call void @llvm.lifetime.end.p0(i64 4, ptr %13) #11
  %128 = load i32, ptr %10, align 4
  switch i32 %128, label %133 [
    i32 0, label %129
  ]

129:                                              ; preds = %127
  br label %130

130:                                              ; preds = %129
  %131 = load i32, ptr %12, align 4, !tbaa !26
  %132 = add nsw i32 %131, 1
  store i32 %132, ptr %12, align 4, !tbaa !26
  br label %82, !llvm.loop !135

133:                                              ; preds = %127, %86
  call void @llvm.lifetime.end.p0(i64 4, ptr %12) #11
  br label %134

134:                                              ; preds = %133
  %135 = load i8, ptr %11, align 1, !tbaa !83, !range !86, !noundef !87
  %136 = trunc i8 %135 to i1
  br i1 %136, label %137, label %138

137:                                              ; preds = %134
  store i1 true, ptr %3, align 1
  store i32 1, ptr %10, align 4
  br label %139

138:                                              ; preds = %134
  store i32 0, ptr %10, align 4
  br label %139

139:                                              ; preds = %138, %137
  call void @llvm.lifetime.end.p0(i64 1, ptr %11) #11
  br label %140

140:                                              ; preds = %139, %80
  call void @llvm.lifetime.end.p0(i64 8, ptr %9) #11
  %141 = load i32, ptr %10, align 4
  switch i32 %141, label %149 [
    i32 0, label %142
    i32 7, label %143
  ]

142:                                              ; preds = %140
  br label %143

143:                                              ; preds = %142, %140
  %144 = load ptr, ptr %5, align 8, !tbaa !124
  %145 = getelementptr inbounds nuw %"struct.std::pair", ptr %144, i32 0, i32 1
  %146 = load i32, ptr %145, align 4, !tbaa !128
  %147 = add nsw i32 %146, 1
  store i32 %147, ptr %145, align 4, !tbaa !128
  br label %44, !llvm.loop !136

148:                                              ; preds = %44
  store i32 0, ptr %10, align 4
  br label %149

149:                                              ; preds = %148, %140
  call void @llvm.lifetime.end.p0(i64 8, ptr %8) #11
  %150 = load i32, ptr %10, align 4
  switch i32 %150, label %158 [
    i32 0, label %151
  ]

151:                                              ; preds = %149
  br label %152

152:                                              ; preds = %151
  %153 = load ptr, ptr %5, align 8, !tbaa !124
  %154 = getelementptr inbounds nuw %"struct.std::pair", ptr %153, i32 0, i32 0
  %155 = load i32, ptr %154, align 4, !tbaa !126
  %156 = add nsw i32 %155, 1
  store i32 %156, ptr %154, align 4, !tbaa !126
  br label %24, !llvm.loop !137

157:                                              ; preds = %24
  store i1 false, ptr %3, align 1
  store i32 1, ptr %10, align 4
  br label %158

158:                                              ; preds = %157, %149
  call void @llvm.lifetime.end.p0(i64 4, ptr %7) #11
  call void @llvm.lifetime.end.p0(i64 4, ptr %6) #11
  %159 = load i1, ptr %3, align 1
  ret i1 %159
}