; Function Attrs: mustprogress uwtable
define noundef zeroext i1 @_ZN6icu_7716RBBITableBuilder18findDuplicateStateEPSt4pairIiiE(ptr noundef nonnull readonly align 8 captures(none) dereferenceable(52) %0, ptr noundef captures(none) %1) local_unnamed_addr #0 align 2 {
  %3 = getelementptr inbounds nuw i8, ptr %0, i64 24
  %4 = load ptr, ptr %3, align 8, !tbaa !19
  %5 = getelementptr inbounds nuw i8, ptr %4, i64 8
  %6 = load i32, ptr %5, align 8, !tbaa !20
  %7 = load ptr, ptr %0, align 8, !tbaa !3
  %8 = getelementptr inbounds nuw i8, ptr %7, i64 160
  %9 = load ptr, ptr %8, align 8, !tbaa !33
  %10 = tail call noundef i32 @_ZNK6icu_7714RBBISetBuilder20getNumCharCategoriesEv(ptr noundef nonnull align 8 dereferenceable(53) %9)
  %11 = add nsw i32 %6, -1
  %12 = load i32, ptr %1, align 4, !tbaa !107
  %13 = icmp slt i32 %12, %11
  br i1 %13, label %.lr.ph, label %.thread

.lr.ph:                                           ; preds = %2
  %14 = getelementptr inbounds nuw i8, ptr %1, i64 4
  %15 = icmp sgt i32 %10, 0
  br i1 %15, label %.lr.ph.split.us.preheader, label %.lr.ph.split

.lr.ph.split.us.preheader:                        ; preds = %.lr.ph
  %wide.trip.count = zext nneg i32 %10 to i64
  br label %.lr.ph.split.us

.lr.ph.split.us:                                  ; preds = %.lr.ph.split.us.preheader, %._crit_edge.split.us.us
  %16 = phi i32 [ %.pre-phi, %._crit_edge.split.us.us ], [ %12, %.lr.ph.split.us.preheader ]
  %17 = load ptr, ptr %3, align 8, !tbaa !19
  %18 = tail call noundef ptr @_ZNK6icu_777UVector9elementAtEi(ptr noundef nonnull align 8 dereferenceable(40) %17, i32 noundef %16)
  %storemerge.in68.us = load i32, ptr %1, align 4, !tbaa !77
  %storemerge69.us = add nsw i32 %storemerge.in68.us, 1
  store i32 %storemerge69.us, ptr %14, align 4, !tbaa !109
  %19 = icmp slt i32 %storemerge69.us, %6
  br i1 %19, label %.lr.ph71.us, label %._crit_edge.split.us.us

._crit_edge.split.us.us.loopexit:                 ; preds = %.thread.thread.us.us
  %.pre82 = load i32, ptr %1, align 4, !tbaa !107
  %.pre83 = add nsw i32 %.pre82, 1
  br label %._crit_edge.split.us.us

._crit_edge.split.us.us:                          ; preds = %._crit_edge.split.us.us.loopexit, %.lr.ph.split.us
  %.pre-phi = phi i32 [ %.pre83, %._crit_edge.split.us.us.loopexit ], [ %storemerge69.us, %.lr.ph.split.us ]
  store i32 %.pre-phi, ptr %1, align 4, !tbaa !107
  %20 = icmp slt i32 %.pre-phi, %11
  br i1 %20, label %.lr.ph.split.us, label %.thread, !llvm.loop !113

.lr.ph71.us:                                      ; preds = %.lr.ph.split.us
  %21 = getelementptr inbounds nuw i8, ptr %18, i64 4
  %22 = getelementptr inbounds nuw i8, ptr %18, i64 8
  %23 = getelementptr inbounds nuw i8, ptr %18, i64 24
  %24 = getelementptr inbounds nuw i8, ptr %18, i64 40
  br label %25

25:                                               ; preds = %.thread.thread.us.us, %.lr.ph71.us
  %storemerge70.us.us = phi i32 [ %storemerge69.us, %.lr.ph71.us ], [ %storemerge.us.us, %.thread.thread.us.us ]
  %26 = load ptr, ptr %3, align 8, !tbaa !19
  %27 = tail call noundef ptr @_ZNK6icu_777UVector9elementAtEi(ptr noundef nonnull align 8 dereferenceable(40) %26, i32 noundef %storemerge70.us.us)
  %28 = load i32, ptr %21, align 4, !tbaa !81
  %29 = getelementptr inbounds nuw i8, ptr %27, i64 4
  %30 = load i32, ptr %29, align 4, !tbaa !81
  %.not.us.us = icmp eq i32 %28, %30
  br i1 %.not.us.us, label %31, label %.thread.thread.us.us

31:                                               ; preds = %25
  %32 = load i32, ptr %22, align 8, !tbaa !84
  %33 = getelementptr inbounds nuw i8, ptr %27, i64 8
  %34 = load i32, ptr %33, align 8, !tbaa !84
  %.not51.us.us = icmp eq i32 %32, %34
  br i1 %.not51.us.us, label %35, label %.thread.thread.us.us

35:                                               ; preds = %31
  %36 = load i32, ptr %23, align 8, !tbaa !91
  %37 = getelementptr inbounds nuw i8, ptr %27, i64 24
  %38 = load i32, ptr %37, align 8, !tbaa !91
  %.not52.us.us = icmp eq i32 %36, %38
  br i1 %.not52.us.us, label %.preheader.us.us, label %.thread.thread.us.us

39:                                               ; preds = %.preheader.us.us, %65
  %indvars.iv = phi i64 [ 0, %.preheader.us.us ], [ %indvars.iv.next, %65 ]
  %40 = icmp slt i64 %indvars.iv, %75
  br i1 %40, label %41, label %_ZNK6icu_779UVector3210elementAtiEi.exit.us.us

41:                                               ; preds = %39
  %42 = load ptr, ptr %69, align 8, !tbaa !74
  %43 = getelementptr inbounds nuw i32, ptr %42, i64 %indvars.iv
  %44 = load i32, ptr %43, align 4, !tbaa !77
  br label %_ZNK6icu_779UVector3210elementAtiEi.exit.us.us

_ZNK6icu_779UVector3210elementAtiEi.exit.us.us:   ; preds = %41, %39
  %45 = phi i32 [ %44, %41 ], [ 0, %39 ]
  %46 = icmp slt i64 %indvars.iv, %76
  br i1 %46, label %47, label %_ZNK6icu_779UVector3210elementAtiEi.exit54.us.us

47:                                               ; preds = %_ZNK6icu_779UVector3210elementAtiEi.exit.us.us
  %48 = load ptr, ptr %74, align 8, !tbaa !74
  %49 = getelementptr inbounds nuw i32, ptr %48, i64 %indvars.iv
  %50 = load i32, ptr %49, align 4, !tbaa !77
  br label %_ZNK6icu_779UVector3210elementAtiEi.exit54.us.us

_ZNK6icu_779UVector3210elementAtiEi.exit54.us.us: ; preds = %47, %_ZNK6icu_779UVector3210elementAtiEi.exit.us.us
  %51 = phi i32 [ %50, %47 ], [ 0, %_ZNK6icu_779UVector3210elementAtiEi.exit.us.us ]
  %52 = icmp eq i32 %45, %51
  br i1 %52, label %65, label %53

53:                                               ; preds = %_ZNK6icu_779UVector3210elementAtiEi.exit54.us.us
  %54 = load i32, ptr %1, align 4, !tbaa !107
  %55 = icmp eq i32 %45, %54
  br i1 %55, label %59, label %56

56:                                               ; preds = %53
  %57 = load i32, ptr %14, align 4, !tbaa !109
  %58 = icmp eq i32 %45, %57
  br i1 %58, label %59, label %.thread.thread.us.us

59:                                               ; preds = %56, %53
  %60 = icmp eq i32 %51, %54
  br i1 %60, label %65, label %61

61:                                               ; preds = %59
  %62 = load i32, ptr %14, align 4, !tbaa !109
  %63 = icmp eq i32 %51, %62
  br i1 %63, label %65, label %.thread.thread.us.us

.thread.thread.us.us:                             ; preds = %56, %61, %35, %31, %25
  %storemerge.in.us.us = load i32, ptr %14, align 4, !tbaa !77
  %storemerge.us.us = add nsw i32 %storemerge.in.us.us, 1
  store i32 %storemerge.us.us, ptr %14, align 4, !tbaa !109
  %64 = icmp slt i32 %storemerge.us.us, %6
  br i1 %64, label %25, label %._crit_edge.split.us.us.loopexit, !llvm.loop !114

65:                                               ; preds = %61, %59, %_ZNK6icu_779UVector3210elementAtiEi.exit54.us.us
  %indvars.iv.next = add nuw nsw i64 %indvars.iv, 1
  %exitcond.not = icmp eq i64 %indvars.iv.next, %wide.trip.count
  br i1 %exitcond.not, label %.thread, label %39, !llvm.loop !115

.preheader.us.us:                                 ; preds = %35
  %66 = load ptr, ptr %24, align 8, !tbaa !68
  %67 = getelementptr inbounds nuw i8, ptr %66, i64 8
  %68 = load i32, ptr %67, align 8
  %69 = getelementptr inbounds nuw i8, ptr %66, i64 24
  %70 = getelementptr inbounds nuw i8, ptr %27, i64 40
  %71 = load ptr, ptr %70, align 8, !tbaa !68
  %72 = getelementptr inbounds nuw i8, ptr %71, i64 8
  %73 = load i32, ptr %72, align 8
  %74 = getelementptr inbounds nuw i8, ptr %71, i64 24
  %75 = sext i32 %68 to i64
  %76 = sext i32 %73 to i64
  br label %39

.lr.ph.split:                                     ; preds = %.lr.ph, %._crit_edge.split
  %77 = phi i32 [ %.pre-phi85, %._crit_edge.split ], [ %12, %.lr.ph ]
  %78 = load ptr, ptr %3, align 8, !tbaa !19
  %79 = tail call noundef ptr @_ZNK6icu_777UVector9elementAtEi(ptr noundef nonnull align 8 dereferenceable(40) %78, i32 noundef %77)
  %storemerge.in68 = load i32, ptr %1, align 4, !tbaa !77
  %storemerge69 = add nsw i32 %storemerge.in68, 1
  store i32 %storemerge69, ptr %14, align 4, !tbaa !109
  %80 = icmp slt i32 %storemerge69, %6
  br i1 %80, label %.lr.ph71, label %._crit_edge.split

.lr.ph71:                                         ; preds = %.lr.ph.split
  %81 = getelementptr inbounds nuw i8, ptr %79, i64 4
  %82 = getelementptr inbounds nuw i8, ptr %79, i64 8
  %83 = getelementptr inbounds nuw i8, ptr %79, i64 24
  br label %84

84:                                               ; preds = %.lr.ph71, %.thread.thread
  %storemerge70 = phi i32 [ %storemerge69, %.lr.ph71 ], [ %storemerge, %.thread.thread ]
  %85 = load ptr, ptr %3, align 8, !tbaa !19
  %86 = tail call noundef ptr @_ZNK6icu_777UVector9elementAtEi(ptr noundef nonnull align 8 dereferenceable(40) %85, i32 noundef %storemerge70)
  %87 = load i32, ptr %81, align 4, !tbaa !81
  %88 = getelementptr inbounds nuw i8, ptr %86, i64 4
  %89 = load i32, ptr %88, align 4, !tbaa !81
  %.not = icmp eq i32 %87, %89
  br i1 %.not, label %90, label %.thread.thread

90:                                               ; preds = %84
  %91 = load i32, ptr %82, align 8, !tbaa !84
  %92 = getelementptr inbounds nuw i8, ptr %86, i64 8
  %93 = load i32, ptr %92, align 8, !tbaa !84
  %.not51 = icmp eq i32 %91, %93
  br i1 %.not51, label %94, label %.thread.thread

94:                                               ; preds = %90
  %95 = load i32, ptr %83, align 8, !tbaa !91
  %96 = getelementptr inbounds nuw i8, ptr %86, i64 24
  %97 = load i32, ptr %96, align 8, !tbaa !91
  %.not52 = icmp eq i32 %95, %97
  br i1 %.not52, label %.thread, label %.thread.thread

.thread.thread:                                   ; preds = %94, %90, %84
  %storemerge.in = load i32, ptr %14, align 4, !tbaa !77
  %storemerge = add nsw i32 %storemerge.in, 1
  store i32 %storemerge, ptr %14, align 4, !tbaa !109
  %98 = icmp slt i32 %storemerge, %6
  br i1 %98, label %84, label %._crit_edge.split.loopexit, !llvm.loop !114

._crit_edge.split.loopexit:                       ; preds = %.thread.thread
  %.pre = load i32, ptr %1, align 4, !tbaa !107
  %.pre84 = add nsw i32 %.pre, 1
  br label %._crit_edge.split

._crit_edge.split:                                ; preds = %._crit_edge.split.loopexit, %.lr.ph.split
  %.pre-phi85 = phi i32 [ %.pre84, %._crit_edge.split.loopexit ], [ %storemerge69, %.lr.ph.split ]
  store i32 %.pre-phi85, ptr %1, align 4, !tbaa !107
  %99 = icmp slt i32 %.pre-phi85, %11
  br i1 %99, label %.lr.ph.split, label %.thread, !llvm.loop !113

.thread:                                          ; preds = %._crit_edge.split, %94, %._crit_edge.split.us.us, %65, %2
  %100 = phi i1 [ false, %2 ], [ true, %65 ], [ false, %._crit_edge.split.us.us ], [ true, %94 ], [ false, %._crit_edge.split ]
  ret i1 %100
}